; Function Attrs: nounwind sspstrong uwtable
define void @ossl_time_split(i64 noundef %0, ptr noundef writeonly captures(none) %1, ptr noundef writeonly captures(none) %2) local_unnamed_addr #0 {
  %4 = tail call i64 @rb_Integer(i64 noundef %0) #9
  %5 = and i64 %4, 1
  %.not = icmp eq i64 %5, 0
  br i1 %.not, label %13, label %6

6:                                                ; preds = %3
  %7 = ashr i64 %4, 1
  %8 = srem i64 %7, 86400
  store i64 %8, ptr %1, align 8, !tbaa !17
  %9 = sdiv i64 %7, 86400
  %10 = add nsw i64 %9, 2147483648
  %.not.i = icmp ult i64 %10, 4294967296
  br i1 %.not.i, label %rb_long2int_inline.exit, label %11

11:                                               ; preds = %6
  tail call void @rb_out_of_int(i64 noundef %9) #11
  unreachable

rb_long2int_inline.exit:                          ; preds = %6
  %12 = trunc i64 %9 to i32
  store i32 %12, ptr %2, align 4, !tbaa !25
  br label %29

13:                                               ; preds = %3
  %.pr.i = load i64, ptr @ossl_time_split.rbimpl_id, align 8, !tbaa !17
  %.not4.i = icmp eq i64 %.pr.i, 0
  br i1 %.not4.i, label %.lr.ph.i, label %rbimpl_intern_const.exit

.lr.ph.i:                                         ; preds = %13, %.lr.ph.i
  %14 = tail call i64 @rb_intern2(ptr noundef nonnull @.str.6, i64 noundef 1) #9
  store i64 %14, ptr @ossl_time_split.rbimpl_id, align 8, !tbaa !17
  %.not.i12 = icmp eq i64 %14, 0
  br i1 %.not.i12, label %.lr.ph.i, label %rbimpl_intern_const.exit, !llvm.loop !23

rbimpl_intern_const.exit:                         ; preds = %.lr.ph.i, %13
  %.lcssa.i = phi i64 [ %.pr.i, %13 ], [ %14, %.lr.ph.i ]
  %15 = tail call i64 (i64, i64, i32, ...) @rb_funcall(i64 noundef %4, i64 noundef %.lcssa.i, i32 noundef 1, i64 noundef 172801) #9
  %16 = and i64 %15, 1
  %.not.i13 = icmp eq i64 %16, 0
  br i1 %.not.i13, label %19, label %17

17:                                               ; preds = %rbimpl_intern_const.exit
  %18 = tail call i64 @rb_fix2int(i64 noundef %15) #9
  br label %rb_num2int_inline.exit

19:                                               ; preds = %rbimpl_intern_const.exit
  %20 = tail call i64 @rb_num2int(i64 noundef %15) #9
  br label %rb_num2int_inline.exit

rb_num2int_inline.exit:                           ; preds = %17, %19
  %.0.i = phi i64 [ %18, %17 ], [ %20, %19 ]
  %21 = trunc i64 %.0.i to i32
  store i32 %21, ptr %2, align 4, !tbaa !25
  %.pr.i14 = load i64, ptr @ossl_time_split.rbimpl_id.7, align 8, !tbaa !17
  %.not4.i15 = icmp eq i64 %.pr.i14, 0
  br i1 %.not4.i15, label %.lr.ph.i17, label %rbimpl_intern_const.exit19

.lr.ph.i17:                                       ; preds = %rb_num2int_inline.exit, %.lr.ph.i17
  %22 = tail call i64 @rb_intern2(ptr noundef nonnull @.str.8, i64 noundef 1) #9
  store i64 %22, ptr @ossl_time_split.rbimpl_id.7, align 8, !tbaa !17
  %.not.i18 = icmp eq i64 %22, 0
  br i1 %.not.i18, label %.lr.ph.i17, label %rbimpl_intern_const.exit19, !llvm.loop !23

rbimpl_intern_const.exit19:                       ; preds = %.lr.ph.i17, %rb_num2int_inline.exit
  %.lcssa.i16 = phi i64 [ %.pr.i14, %rb_num2int_inline.exit ], [ %22, %.lr.ph.i17 ]
  %23 = tail call i64 (i64, i64, i32, ...) @rb_funcall(i64 noundef %4, i64 noundef %.lcssa.i16, i32 noundef 1, i64 noundef 172801) #9
  %24 = and i64 %23, 1
  %.not.i20 = icmp eq i64 %24, 0
  br i1 %.not.i20, label %27, label %25

25:                                               ; preds = %rbimpl_intern_const.exit19
  %26 = ashr i64 %23, 1
  br label %rb_num2long_inline.exit

27:                                               ; preds = %rbimpl_intern_const.exit19
  %28 = tail call i64 @rb_num2long(i64 noundef %23) #9
  br label %rb_num2long_inline.exit

rb_num2long_inline.exit:                          ; preds = %25, %27
  %.0.i21 = phi i64 [ %26, %25 ], [ %28, %27 ]
  store i64 %.0.i21, ptr %1, align 8, !tbaa !17
  br label %29

29:                                               ; preds = %rb_num2long_inline.exit, %rb_long2int_inline.exit
  ret void
}